; Function Attrs: nounwind uwtable
define i32 @cli_bcapi_map_setvalue(ptr nocapture noundef readonly %0, ptr noundef %1, i32 noundef %2, i32 noundef %3) local_unnamed_addr #1 {
  %5 = icmp slt i32 %3, 0
  br i1 %5, label %get_hashtab.exit.thread, label %6

6:                                                ; preds = %4
  %7 = getelementptr inbounds i8, ptr %0, i64 1280
  %8 = load i32, ptr %7, align 8
  %.not.i = icmp ugt i32 %8, %3
  br i1 %.not.i, label %9, label %get_hashtab.exit.thread

9:                                                ; preds = %6
  %10 = getelementptr inbounds i8, ptr %0, i64 1272
  %11 = load ptr, ptr %10, align 8
  %.not8.i = icmp eq ptr %11, null
  br i1 %.not8.i, label %get_hashtab.exit.thread, label %get_hashtab.exit

get_hashtab.exit:                                 ; preds = %9
  %12 = zext nneg i32 %3 to i64
  %13 = getelementptr inbounds %struct.cli_map, ptr %11, i64 %12
  %14 = tail call i32 @cli_map_setvalue(ptr noundef nonnull %13, ptr noundef %1, i32 noundef %2) #29
  %15 = icmp ne i32 %14, 0
  %16 = sext i1 %15 to i32
  br label %get_hashtab.exit.thread

get_hashtab.exit.thread:                          ; preds = %4, %6, %9, %get_hashtab.exit
  %.0 = phi i32 [ %16, %get_hashtab.exit ], [ -1, %9 ], [ -1, %6 ], [ -1, %4 ]
  ret i32 %.0
}